target datalayout = "e-m:e-p270:32:32-p271:32:32-p272:64:64-i64:64-i128:128-f80:128-n8:16:32:64-S128"
target triple = "x86_64-pc-linux-gnu"

%"struct.(anonymous namespace)::CsectSectionEntry" = type { %"struct.(anonymous namespace)::SectionEntry.base", i8, %"class.std::deque.35" }
%"struct.(anonymous namespace)::SectionEntry.base" = type <{ ptr, [8 x i8], i64, i64, i64, i64, i32, i32, i16 }>
%"class.std::deque.35" = type { %"class.std::_Deque_base.36" }
%"class.std::_Deque_base.36" = type { %"struct.std::_Deque_base<std::deque<(anonymous namespace)::XCOFFSection> *, std::allocator<std::deque<(anonymous namespace)::XCOFFSection> *>>::_Deque_impl" }
%"struct.std::_Deque_base<std::deque<(anonymous namespace)::XCOFFSection> *, std::allocator<std::deque<(anonymous namespace)::XCOFFSection> *>>::_Deque_impl" = type { %"struct.std::_Deque_base<std::deque<(anonymous namespace)::XCOFFSection> *, std::allocator<std::deque<(anonymous namespace)::XCOFFSection> *>>::_Deque_impl_data" }
%"struct.std::_Deque_base<std::deque<(anonymous namespace)::XCOFFSection> *, std::allocator<std::deque<(anonymous namespace)::XCOFFSection> *>>::_Deque_impl_data" = type { ptr, i64, %"struct.std::_Deque_iterator.40", %"struct.std::_Deque_iterator.40" }
%"struct.std::_Deque_iterator.40" = type { ptr, ptr, ptr, ptr }
%"class.std::allocator.92" = type { i8 }

; Function Attrs: mustprogress nounwind uwtable
define internal void @_ZNSt15__new_allocatorIPPSt5dequeIN12_GLOBAL__N_112XCOFFSectionESaIS2_EEEC2Ev(ptr noundef nonnull align 1 dereferenceable(1) %0) unnamed_addr #0 align 2 {
  %2 = alloca ptr, align 8
  store ptr %0, ptr %2, align 8
  ret void
}

; Function Attrs: mustprogress nounwind uwtable
define internal void @_ZNSt15__new_allocatorIPSt5dequeIN12_GLOBAL__N_112XCOFFSectionESaIS2_EEE10deallocateEPS5_m(ptr noundef nonnull align 1 dereferenceable(1) %0, ptr noundef %1, i64 noundef %2) #0 align 2 {
  %4 = alloca ptr, align 8
  %5 = alloca ptr, align 8
  %6 = alloca i64, align 8
  store ptr %0, ptr %4, align 8
  store ptr %1, ptr %5, align 8
  store i64 %2, ptr %6, align 8
  %7 = load ptr, ptr %5, align 8
  %8 = load i64, ptr %6, align 8
  %9 = mul i64 %8, 8
  call void @_ZdlPvm(ptr noundef %7, i64 noundef %9) #17
  ret void
}

; Function Attrs: mustprogress nounwind uwtable
define internal void @_ZNSt15__new_allocatorIPSt5dequeIN12_GLOBAL__N_112XCOFFSectionESaIS2_EEED2Ev(ptr noundef nonnull align 1 dereferenceable(1) %0) unnamed_addr #0 align 2 {
  %2 = alloca ptr, align 8
  store ptr %0, ptr %2, align 8
  ret void
}

; Function Attrs: mustprogress nounwind uwtable
define internal void @_ZNSt15__new_allocatorIPPSt5dequeIN12_GLOBAL__N_112XCOFFSectionESaIS2_EEED2Ev(ptr noundef nonnull align 1 dereferenceable(1) %0) unnamed_addr #0 align 2 {
  %2 = alloca ptr, align 8
  store ptr %0, ptr %2, align 8
  ret void
}

; Function Attrs: mustprogress nounwind uwtable
define internal void @_ZNSt15__new_allocatorIPPSt5dequeIN12_GLOBAL__N_112XCOFFSectionESaIS2_EEE10deallocateEPS6_m(ptr noundef nonnull align 1 dereferenceable(1) %0, ptr noundef %1, i64 noundef %2) #0 align 2 {
  %4 = alloca ptr, align 8
  %5 = alloca ptr, align 8
  %6 = alloca i64, align 8
  store ptr %0, ptr %4, align 8
  store ptr %1, ptr %5, align 8
  store i64 %2, ptr %6, align 8
  %7 = load ptr, ptr %5, align 8
  %8 = load i64, ptr %6, align 8
  %9 = mul i64 %8, 8
  call void @_ZdlPvm(ptr noundef %7, i64 noundef %9) #17
  ret void
}

; Function Attrs: mustprogress nounwind uwtable
define internal void @_ZNSaIPPSt5dequeIN12_GLOBAL__N_112XCOFFSectionESaIS1_EEEC2IS4_EERKSaIT_E(ptr noundef nonnull align 1 dereferenceable(1) %0, ptr noundef nonnull align 1 dereferenceable(1) %1) unnamed_addr #0 align 2 {
  %3 = alloca ptr, align 8
  %4 = alloca ptr, align 8
  store ptr %0, ptr %3, align 8
  store ptr %1, ptr %4, align 8
  %5 = load ptr, ptr %3, align 8
  call void @_ZNSt15__new_allocatorIPPSt5dequeIN12_GLOBAL__N_112XCOFFSectionESaIS2_EEEC2Ev(ptr noundef nonnull align 1 dereferenceable(1) %5) #13
  ret void
}

; Function Attrs: mustprogress nounwind uwtable
define internal noundef nonnull align 1 dereferenceable(1) ptr @_ZNKSt11_Deque_baseIPSt5dequeIN12_GLOBAL__N_112XCOFFSectionESaIS2_EESaIS5_EE19_M_get_Tp_allocatorEv(ptr noundef nonnull align 8 dereferenceable(80) %0) #0 align 2 {
  %2 = alloca ptr, align 8
  store ptr %0, ptr %2, align 8
  %3 = load ptr, ptr %2, align 8
  %4 = getelementptr inbounds nuw %"class.std::_Deque_base.36", ptr %3, i32 0, i32 0
  ret ptr %4
}

; Function Attrs: mustprogress nounwind uwtable
define internal void @_ZNSt16allocator_traitsISaIPSt5dequeIN12_GLOBAL__N_112XCOFFSectionESaIS2_EEEE10deallocateERS6_PS5_m(ptr noundef nonnull align 1 dereferenceable(1) %0, ptr noundef %1, i64 noundef %2) #0 align 2 {
  %4 = alloca ptr, align 8
  %5 = alloca ptr, align 8
  %6 = alloca i64, align 8
  store ptr %0, ptr %4, align 8
  store ptr %1, ptr %5, align 8
  store i64 %2, ptr %6, align 8
  %7 = load ptr, ptr %4, align 8
  %8 = load ptr, ptr %5, align 8
  %9 = load i64, ptr %6, align 8
  call void @_ZNSt15__new_allocatorIPSt5dequeIN12_GLOBAL__N_112XCOFFSectionESaIS2_EEE10deallocateEPS5_m(ptr noundef nonnull align 1 dereferenceable(1) %7, ptr noundef %8, i64 noundef %9)
  ret void
}

; Function Attrs: mustprogress nounwind uwtable
define linkonce_odr noundef i64 @_ZSt16__deque_buf_sizem(i64 noundef %0) #0 comdat {
  %2 = alloca i64, align 8
  store i64 %0, ptr %2, align 8
  %3 = load i64, ptr %2, align 8
  %4 = icmp ult i64 %3, 512
  br i1 %4, label %5, label %8

5:                                                ; preds = %1
  %6 = load i64, ptr %2, align 8
  %7 = udiv i64 512, %6
  br label %9

8:                                                ; preds = %1
  br label %9

9:                                                ; preds = %8, %5
  %10 = phi i64 [ %7, %5 ], [ 1, %8 ]
  ret i64 %10
}

; Function Attrs: mustprogress nounwind uwtable
define internal void @_ZNSaIPSt5dequeIN12_GLOBAL__N_112XCOFFSectionESaIS1_EEED2Ev(ptr noundef nonnull align 1 dereferenceable(1) %0) unnamed_addr #0 align 2 {
  %2 = alloca ptr, align 8
  store ptr %0, ptr %2, align 8
  %3 = load ptr, ptr %2, align 8
  call void @_ZNSt15__new_allocatorIPSt5dequeIN12_GLOBAL__N_112XCOFFSectionESaIS2_EEED2Ev(ptr noundef nonnull align 1 dereferenceable(1) %3) #13
  ret void
}

; Function Attrs: mustprogress nounwind uwtable
define internal void @_ZNSaIPPSt5dequeIN12_GLOBAL__N_112XCOFFSectionESaIS1_EEED2Ev(ptr noundef nonnull align 1 dereferenceable(1) %0) unnamed_addr #0 align 2 {
  %2 = alloca ptr, align 8
  store ptr %0, ptr %2, align 8
  %3 = load ptr, ptr %2, align 8
  call void @_ZNSt15__new_allocatorIPPSt5dequeIN12_GLOBAL__N_112XCOFFSectionESaIS2_EEED2Ev(ptr noundef nonnull align 1 dereferenceable(1) %3) #13
  ret void
}

; Function Attrs: mustprogress nounwind uwtable
define internal void @_ZNSt16allocator_traitsISaIPPSt5dequeIN12_GLOBAL__N_112XCOFFSectionESaIS2_EEEE10deallocateERS7_PS6_m(ptr noundef nonnull align 1 dereferenceable(1) %0, ptr noundef %1, i64 noundef %2) #0 align 2 {
  %4 = alloca ptr, align 8
  %5 = alloca ptr, align 8
  %6 = alloca i64, align 8
  store ptr %0, ptr %4, align 8
  store ptr %1, ptr %5, align 8
  store i64 %2, ptr %6, align 8
  %7 = load ptr, ptr %4, align 8
  %8 = load ptr, ptr %5, align 8
  %9 = load i64, ptr %6, align 8
  call void @_ZNSt15__new_allocatorIPPSt5dequeIN12_GLOBAL__N_112XCOFFSectionESaIS2_EEE10deallocateEPS6_m(ptr noundef nonnull align 1 dereferenceable(1) %7, ptr noundef %8, i64 noundef %9)
  ret void
}

; Function Attrs: mustprogress nounwind uwtable
define internal void @_ZNKSt11_Deque_baseIPSt5dequeIN12_GLOBAL__N_112XCOFFSectionESaIS2_EESaIS5_EE20_M_get_map_allocatorEv(ptr dead_on_unwind noalias writable sret(%"class.std::allocator.92") align 1 %0, ptr noundef nonnull align 8 dereferenceable(80) %1) #0 align 2 {
  %3 = alloca ptr, align 8
  %4 = alloca ptr, align 8
  store ptr %0, ptr %3, align 8
  store ptr %1, ptr %4, align 8
  %5 = load ptr, ptr %4, align 8
  %6 = call noundef nonnull align 1 dereferenceable(1) ptr @_ZNKSt11_Deque_baseIPSt5dequeIN12_GLOBAL__N_112XCOFFSectionESaIS2_EESaIS5_EE19_M_get_Tp_allocatorEv(ptr noundef nonnull align 8 dereferenceable(80) %5) #13
  call void @_ZNSaIPPSt5dequeIN12_GLOBAL__N_112XCOFFSectionESaIS1_EEEC2IS4_EERKSaIT_E(ptr noundef nonnull align 1 dereferenceable(1) %0, ptr noundef nonnull align 1 dereferenceable(1) %6) #13
  ret void
}

; Function Attrs: mustprogress nounwind uwtable
define internal void @_ZNSt11_Deque_baseIPSt5dequeIN12_GLOBAL__N_112XCOFFSectionESaIS2_EESaIS5_EE18_M_deallocate_nodeEPS5_(ptr noundef nonnull align 8 dereferenceable(80) %0, ptr noundef %1) #0 align 2 {
  %3 = alloca ptr, align 8
  %4 = alloca ptr, align 8
  store ptr %0, ptr %3, align 8
  store ptr %1, ptr %4, align 8
  %5 = load ptr, ptr %3, align 8
  %6 = getelementptr inbounds nuw %"class.std::_Deque_base.36", ptr %5, i32 0, i32 0
  %7 = load ptr, ptr %4, align 8
  %8 = call noundef i64 @_ZSt16__deque_buf_sizem(i64 noundef 8)
  call void @_ZNSt16allocator_traitsISaIPSt5dequeIN12_GLOBAL__N_112XCOFFSectionESaIS2_EEEE10deallocateERS6_PS5_m(ptr noundef nonnull align 1 dereferenceable(1) %6, ptr noundef %7, i64 noundef %8)
  ret void
}

; Function Attrs: mustprogress nounwind uwtable
define internal void @_ZNSt11_Deque_baseIPSt5dequeIN12_GLOBAL__N_112XCOFFSectionESaIS2_EESaIS5_EE11_Deque_implD2Ev(ptr noundef nonnull align 8 dereferenceable(80) %0) unnamed_addr #0 align 2 {
  %2 = alloca ptr, align 8
  store ptr %0, ptr %2, align 8
  %3 = load ptr, ptr %2, align 8
  call void @_ZNSaIPSt5dequeIN12_GLOBAL__N_112XCOFFSectionESaIS1_EEED2Ev(ptr noundef nonnull align 1 dereferenceable(1) %3) #13
  ret void
}

; Function Attrs: mustprogress nounwind uwtable
define internal void @_ZNSt11_Deque_baseIPSt5dequeIN12_GLOBAL__N_112XCOFFSectionESaIS2_EESaIS5_EE17_M_deallocate_mapEPPS5_m(ptr noundef nonnull align 8 dereferenceable(80) %0, ptr noundef %1, i64 noundef %2) #0 align 2 {
  %4 = alloca ptr, align 8
  %5 = alloca ptr, align 8
  %6 = alloca i64, align 8
  %7 = alloca %"class.std::allocator.92", align 1
  store ptr %0, ptr %4, align 8
  store ptr %1, ptr %5, align 8
  store i64 %2, ptr %6, align 8
  %8 = load ptr, ptr %4, align 8
  call void @_ZNKSt11_Deque_baseIPSt5dequeIN12_GLOBAL__N_112XCOFFSectionESaIS2_EESaIS5_EE20_M_get_map_allocatorEv(ptr dead_on_unwind writable sret(%"class.std::allocator.92") align 1 %7, ptr noundef nonnull align 8 dereferenceable(80) %8) #13
  %9 = load ptr, ptr %5, align 8
  %10 = load i64, ptr %6, align 8
  call void @_ZNSt16allocator_traitsISaIPPSt5dequeIN12_GLOBAL__N_112XCOFFSectionESaIS2_EEEE10deallocateERS7_PS6_m(ptr noundef nonnull align 1 dereferenceable(1) %7, ptr noundef %9, i64 noundef %10)
  call void @_ZNSaIPPSt5dequeIN12_GLOBAL__N_112XCOFFSectionESaIS1_EEED2Ev(ptr noundef nonnull align 1 dereferenceable(1) %7) #13
  ret void
}

; Function Attrs: mustprogress nounwind uwtable
define internal void @_ZNSt11_Deque_baseIPSt5dequeIN12_GLOBAL__N_112XCOFFSectionESaIS2_EESaIS5_EE16_M_destroy_nodesEPPS5_S9_(ptr noundef nonnull align 8 dereferenceable(80) %0, ptr noundef %1, ptr noundef %2) #0 align 2 {
  %4 = alloca ptr, align 8
  %5 = alloca ptr, align 8
  %6 = alloca ptr, align 8
  %7 = alloca ptr, align 8
  store ptr %0, ptr %4, align 8
  store ptr %1, ptr %5, align 8
  store ptr %2, ptr %6, align 8
  %8 = load ptr, ptr %4, align 8
  %9 = load ptr, ptr %5, align 8
  store ptr %9, ptr %7, align 8
  br label %10

10:                                               ; preds = %17, %3
  %11 = load ptr, ptr %7, align 8
  %12 = load ptr, ptr %6, align 8
  %13 = icmp ult ptr %11, %12
  br i1 %13, label %14, label %20

14:                                               ; preds = %10
  %15 = load ptr, ptr %7, align 8
  %16 = load ptr, ptr %15, align 8
  call void @_ZNSt11_Deque_baseIPSt5dequeIN12_GLOBAL__N_112XCOFFSectionESaIS2_EESaIS5_EE18_M_deallocate_nodeEPS5_(ptr noundef nonnull align 8 dereferenceable(80) %8, ptr noundef %16) #13
  br label %17

17:                                               ; preds = %14
  %18 = load ptr, ptr %7, align 8
  %19 = getelementptr inbounds ptr, ptr %18, i32 1
  store ptr %19, ptr %7, align 8
  br label %10, !llvm.loop !19

20:                                               ; preds = %10
  ret void
}

; Function Attrs: mustprogress nounwind uwtable
define internal void @_ZNSt15_Deque_iteratorIPSt5dequeIN12_GLOBAL__N_112XCOFFSectionESaIS2_EERS5_PS5_EC2ERKS8_(ptr noundef nonnull align 8 dereferenceable(32) %0, ptr noundef nonnull align 8 dereferenceable(32) %1) unnamed_addr #0 align 2 {
  %3 = alloca ptr, align 8
  %4 = alloca ptr, align 8
  store ptr %0, ptr %3, align 8
  store ptr %1, ptr %4, align 8
  %5 = load ptr, ptr %3, align 8
  %6 = getelementptr inbounds nuw %"struct.std::_Deque_iterator.40", ptr %5, i32 0, i32 0
  %7 = load ptr, ptr %4, align 8
  %8 = getelementptr inbounds nuw %"struct.std::_Deque_iterator.40", ptr %7, i32 0, i32 0
  %9 = load ptr, ptr %8, align 8
  store ptr %9, ptr %6, align 8
  %10 = getelementptr inbounds nuw %"struct.std::_Deque_iterator.40", ptr %5, i32 0, i32 1
  %11 = load ptr, ptr %4, align 8
  %12 = getelementptr inbounds nuw %"struct.std::_Deque_iterator.40", ptr %11, i32 0, i32 1
  %13 = load ptr, ptr %12, align 8
  store ptr %13, ptr %10, align 8
  %14 = getelementptr inbounds nuw %"struct.std::_Deque_iterator.40", ptr %5, i32 0, i32 2
  %15 = load ptr, ptr %4, align 8
  %16 = getelementptr inbounds nuw %"struct.std::_Deque_iterator.40", ptr %15, i32 0, i32 2
  %17 = load ptr, ptr %16, align 8
  store ptr %17, ptr %14, align 8
  %18 = getelementptr inbounds nuw %"struct.std::_Deque_iterator.40", ptr %5, i32 0, i32 3
  %19 = load ptr, ptr %4, align 8
  %20 = getelementptr inbounds nuw %"struct.std::_Deque_iterator.40", ptr %19, i32 0, i32 3
  %21 = load ptr, ptr %20, align 8
  store ptr %21, ptr %18, align 8
  ret void
}

; Function Attrs: mustprogress nounwind uwtable
define internal void @_ZNSt11_Deque_baseIPSt5dequeIN12_GLOBAL__N_112XCOFFSectionESaIS2_EESaIS5_EED2Ev(ptr noundef nonnull align 8 dereferenceable(80) %0) unnamed_addr #0 align 2 {
  %2 = alloca ptr, align 8
  store ptr %0, ptr %2, align 8
  %3 = load ptr, ptr %2, align 8
  %4 = getelementptr inbounds nuw %"class.std::_Deque_base.36", ptr %3, i32 0, i32 0
  %5 = getelementptr inbounds nuw %"struct.std::_Deque_base<std::deque<(anonymous namespace)::XCOFFSection> *, std::allocator<std::deque<(anonymous namespace)::XCOFFSection> *>>::_Deque_impl_data", ptr %4, i32 0, i32 0
  %6 = load ptr, ptr %5, align 8
  %7 = icmp ne ptr %6, null
  br i1 %7, label %8, label %24

8:                                                ; preds = %1
  %9 = getelementptr inbounds nuw %"class.std::_Deque_base.36", ptr %3, i32 0, i32 0
  %10 = getelementptr inbounds nuw %"struct.std::_Deque_base<std::deque<(anonymous namespace)::XCOFFSection> *, std::allocator<std::deque<(anonymous namespace)::XCOFFSection> *>>::_Deque_impl_data", ptr %9, i32 0, i32 2
  %11 = getelementptr inbounds nuw %"struct.std::_Deque_iterator.40", ptr %10, i32 0, i32 3
  %12 = load ptr, ptr %11, align 8
  %13 = getelementptr inbounds nuw %"class.std::_Deque_base.36", ptr %3, i32 0, i32 0
  %14 = getelementptr inbounds nuw %"struct.std::_Deque_base<std::deque<(anonymous namespace)::XCOFFSection> *, std::allocator<std::deque<(anonymous namespace)::XCOFFSection> *>>::_Deque_impl_data", ptr %13, i32 0, i32 3
  %15 = getelementptr inbounds nuw %"struct.std::_Deque_iterator.40", ptr %14, i32 0, i32 3
  %16 = load ptr, ptr %15, align 8
  %17 = getelementptr inbounds ptr, ptr %16, i64 1
  call void @_ZNSt11_Deque_baseIPSt5dequeIN12_GLOBAL__N_112XCOFFSectionESaIS2_EESaIS5_EE16_M_destroy_nodesEPPS5_S9_(ptr noundef nonnull align 8 dereferenceable(80) %3, ptr noundef %12, ptr noundef %17) #13
  %18 = getelementptr inbounds nuw %"class.std::_Deque_base.36", ptr %3, i32 0, i32 0
  %19 = getelementptr inbounds nuw %"struct.std::_Deque_base<std::deque<(anonymous namespace)::XCOFFSection> *, std::allocator<std::deque<(anonymous namespace)::XCOFFSection> *>>::_Deque_impl_data", ptr %18, i32 0, i32 0
  %20 = load ptr, ptr %19, align 8
  %21 = getelementptr inbounds nuw %"class.std::_Deque_base.36", ptr %3, i32 0, i32 0
  %22 = getelementptr inbounds nuw %"struct.std::_Deque_base<std::deque<(anonymous namespace)::XCOFFSection> *, std::allocator<std::deque<(anonymous namespace)::XCOFFSection> *>>::_Deque_impl_data", ptr %21, i32 0, i32 1
  %23 = load i64, ptr %22, align 8
  call void @_ZNSt11_Deque_baseIPSt5dequeIN12_GLOBAL__N_112XCOFFSectionESaIS2_EESaIS5_EE17_M_deallocate_mapEPPS5_m(ptr noundef nonnull align 8 dereferenceable(80) %3, ptr noundef %20, i64 noundef %23) #13
  br label %24

24:                                               ; preds = %8, %1
  %25 = getelementptr inbounds nuw %"class.std::_Deque_base.36", ptr %3, i32 0, i32 0
  call void @_ZNSt11_Deque_baseIPSt5dequeIN12_GLOBAL__N_112XCOFFSectionESaIS2_EESaIS5_EE11_Deque_implD2Ev(ptr noundef nonnull align 8 dereferenceable(80) %25) #13
  ret void
}

; Function Attrs: mustprogress nounwind uwtable
define internal void @_ZNSt5dequeIPS_IN12_GLOBAL__N_112XCOFFSectionESaIS1_EESaIS4_EE15_M_destroy_dataESt15_Deque_iteratorIS4_RS4_PS4_ESA_RKS5_(ptr noundef nonnull align 8 dereferenceable(80) %0, ptr noundef %1, ptr noundef %2, ptr noundef nonnull align 1 dereferenceable(1) %3) #0 align 2 {
  %5 = alloca ptr, align 8
  %6 = alloca ptr, align 8
  %7 = alloca ptr, align 8
  %8 = alloca ptr, align 8
  store ptr %0, ptr %5, align 8
  store ptr %1, ptr %6, align 8
  store ptr %2, ptr %7, align 8
  store ptr %3, ptr %8, align 8
  ret void
}

; Function Attrs: mustprogress nounwind uwtable
define internal noundef nonnull align 1 dereferenceable(1) ptr @_ZNSt11_Deque_baseIPSt5dequeIN12_GLOBAL__N_112XCOFFSectionESaIS2_EESaIS5_EE19_M_get_Tp_allocatorEv(ptr noundef nonnull align 8 dereferenceable(80) %0) #0 align 2 {
  %2 = alloca ptr, align 8
  store ptr %0, ptr %2, align 8
  %3 = load ptr, ptr %2, align 8
  %4 = getelementptr inbounds nuw %"class.std::_Deque_base.36", ptr %3, i32 0, i32 0
  ret ptr %4
}

; Function Attrs: mustprogress nounwind uwtable
define internal void @_ZNSt5dequeIPS_IN12_GLOBAL__N_112XCOFFSectionESaIS1_EESaIS4_EE3endEv(ptr dead_on_unwind noalias writable sret(%"struct.std::_Deque_iterator.40") align 8 %0, ptr noundef nonnull align 8 dereferenceable(80) %1) #0 align 2 {
  %3 = alloca ptr, align 8
  %4 = alloca ptr, align 8
  store ptr %0, ptr %3, align 8
  store ptr %1, ptr %4, align 8
  %5 = load ptr, ptr %4, align 8
  %6 = getelementptr inbounds nuw %"class.std::_Deque_base.36", ptr %5, i32 0, i32 0
  %7 = getelementptr inbounds nuw %"struct.std::_Deque_base<std::deque<(anonymous namespace)::XCOFFSection> *, std::allocator<std::deque<(anonymous namespace)::XCOFFSection> *>>::_Deque_impl_data", ptr %6, i32 0, i32 3
  call void @_ZNSt15_Deque_iteratorIPSt5dequeIN12_GLOBAL__N_112XCOFFSectionESaIS2_EERS5_PS5_EC2ERKS8_(ptr noundef nonnull align 8 dereferenceable(32) %0, ptr noundef nonnull align 8 dereferenceable(32) %7) #13
  ret void
}

; Function Attrs: mustprogress nounwind uwtable
define internal void @_ZNSt5dequeIPS_IN12_GLOBAL__N_112XCOFFSectionESaIS1_EESaIS4_EE5beginEv(ptr dead_on_unwind noalias writable sret(%"struct.std::_Deque_iterator.40") align 8 %0, ptr noundef nonnull align 8 dereferenceable(80) %1) #0 align 2 {
  %3 = alloca ptr, align 8
  %4 = alloca ptr, align 8
  store ptr %0, ptr %3, align 8
  store ptr %1, ptr %4, align 8
  %5 = load ptr, ptr %4, align 8
  %6 = getelementptr inbounds nuw %"class.std::_Deque_base.36", ptr %5, i32 0, i32 0
  %7 = getelementptr inbounds nuw %"struct.std::_Deque_base<std::deque<(anonymous namespace)::XCOFFSection> *, std::allocator<std::deque<(anonymous namespace)::XCOFFSection> *>>::_Deque_impl_data", ptr %6, i32 0, i32 2
  call void @_ZNSt15_Deque_iteratorIPSt5dequeIN12_GLOBAL__N_112XCOFFSectionESaIS2_EERS5_PS5_EC2ERKS8_(ptr noundef nonnull align 8 dereferenceable(32) %0, ptr noundef nonnull align 8 dereferenceable(32) %7) #13
  ret void
}

; Function Attrs: mustprogress nounwind uwtable
define internal void @_ZN12_GLOBAL__N_112SectionEntryD2Ev(ptr noundef nonnull align 8 dereferenceable(58) %0) unnamed_addr #0 align 2 {
  %2 = alloca ptr, align 8
  store ptr %0, ptr %2, align 8
  ret void
}

; Function Attrs: mustprogress nounwind uwtable
define internal void @_ZNSt5dequeIPS_IN12_GLOBAL__N_112XCOFFSectionESaIS1_EESaIS4_EED2Ev(ptr noundef nonnull align 8 dereferenceable(80) %0) unnamed_addr #0 align 2 {
  %2 = alloca ptr, align 8
  %3 = alloca %"struct.std::_Deque_iterator.40", align 8
  %4 = alloca %"struct.std::_Deque_iterator.40", align 8
  store ptr %0, ptr %2, align 8
  %5 = load ptr, ptr %2, align 8
  call void @_ZNSt5dequeIPS_IN12_GLOBAL__N_112XCOFFSectionESaIS1_EESaIS4_EE5beginEv(ptr dead_on_unwind writable sret(%"struct.std::_Deque_iterator.40") align 8 %3, ptr noundef nonnull align 8 dereferenceable(80) %5) #13
  call void @_ZNSt5dequeIPS_IN12_GLOBAL__N_112XCOFFSectionESaIS1_EESaIS4_EE3endEv(ptr dead_on_unwind writable sret(%"struct.std::_Deque_iterator.40") align 8 %4, ptr noundef nonnull align 8 dereferenceable(80) %5) #13
  %6 = call noundef nonnull align 1 dereferenceable(1) ptr @_ZNSt11_Deque_baseIPSt5dequeIN12_GLOBAL__N_112XCOFFSectionESaIS2_EESaIS5_EE19_M_get_Tp_allocatorEv(ptr noundef nonnull align 8 dereferenceable(80) %5) #13
  call void @_ZNSt5dequeIPS_IN12_GLOBAL__N_112XCOFFSectionESaIS1_EESaIS4_EE15_M_destroy_dataESt15_Deque_iteratorIS4_RS4_PS4_ESA_RKS5_(ptr noundef nonnull align 8 dereferenceable(80) %5, ptr noundef %3, ptr noundef %4, ptr noundef nonnull align 1 dereferenceable(1) %6)
  call void @_ZNSt11_Deque_baseIPSt5dequeIN12_GLOBAL__N_112XCOFFSectionESaIS2_EESaIS5_EED2Ev(ptr noundef nonnull align 8 dereferenceable(80) %5) #13
  ret void
}

; Function Attrs: mustprogress nounwind uwtable
define internal void @_ZN12_GLOBAL__N_117CsectSectionEntryD2Ev(ptr noundef nonnull align 8 dereferenceable(144) %0) unnamed_addr #0 align 2 {
  %2 = alloca ptr, align 8
  store ptr %0, ptr %2, align 8
  %3 = load ptr, ptr %2, align 8
  store ptr getelementptr inbounds inrange(-16, 32) ({ [6 x ptr] }, ptr @_ZTVN12_GLOBAL__N_117CsectSectionEntryE, i32 0, i32 0, i32 2), ptr %3, align 8
  %4 = getelementptr inbounds nuw %"struct.(anonymous namespace)::CsectSectionEntry", ptr %3, i32 0, i32 2
  call void @_ZNSt5dequeIPS_IN12_GLOBAL__N_112XCOFFSectionESaIS1_EESaIS4_EED2Ev(ptr noundef nonnull align 8 dereferenceable(80) %4) #13
  call void @_ZN12_GLOBAL__N_112SectionEntryD2Ev(ptr noundef nonnull align 8 dereferenceable(58) %3) #13
  ret void
}

; Function Attrs: mustprogress nounwind uwtable
define internal void @_ZN12_GLOBAL__N_117CsectSectionEntryD0Ev(ptr noundef nonnull align 8 dereferenceable(144) %0) unnamed_addr #0 align 2 {
  %2 = alloca ptr, align 8
  store ptr %0, ptr %2, align 8
  %3 = load ptr, ptr %2, align 8
  call void @_ZN12_GLOBAL__N_117CsectSectionEntryD2Ev(ptr noundef nonnull align 8 dereferenceable(144) %3) #13
  call void @_ZdlPvm(ptr noundef %3, i64 noundef 144) #17
  ret void
}