; Function Attrs: mustprogress nounwind uwtable
define internal void @_ZN12_GLOBAL__N_117CsectSectionEntryD0Ev(ptr noundef nonnull align 8 dereferenceable(144) %0) unnamed_addr #0 align 2 {
  store ptr getelementptr inbounds inrange(-16, 32) (i8, ptr @_ZTVN12_GLOBAL__N_117CsectSectionEntryE, i64 16), ptr %0, align 8
  %2 = getelementptr inbounds nuw i8, ptr %0, i64 64
  %3 = load ptr, ptr %2, align 8
  %.not.i.i.i = icmp eq ptr %3, null
  br i1 %.not.i.i.i, label %_ZN12_GLOBAL__N_117CsectSectionEntryD2Ev.exit, label %4

4:                                                ; preds = %1
  %5 = getelementptr inbounds i8, ptr %0, i64 136
  %6 = getelementptr inbounds i8, ptr %0, i64 104
  %7 = load ptr, ptr %6, align 8
  %8 = load ptr, ptr %5, align 8
  %9 = getelementptr inbounds i8, ptr %8, i64 8
  %10 = icmp ult ptr %7, %9
  br i1 %10, label %.lr.ph.i.i.i.i, label %_ZNSt11_Deque_baseIPSt5dequeIN12_GLOBAL__N_112XCOFFSectionESaIS2_EESaIS5_EE16_M_destroy_nodesEPPS5_S9_.exit.i.i.i

.lr.ph.i.i.i.i:                                   ; preds = %4, %.lr.ph.i.i.i.i
  %.01.i.i.i.i = phi ptr [ %12, %.lr.ph.i.i.i.i ], [ %7, %4 ]
  %11 = load ptr, ptr %.01.i.i.i.i, align 8
  tail call void @_ZdlPvm(ptr noundef %11, i64 noundef 512) #23
  %12 = getelementptr inbounds i8, ptr %.01.i.i.i.i, i64 8
  %13 = icmp ult ptr %.01.i.i.i.i, %8
  br i1 %13, label %.lr.ph.i.i.i.i, label %_ZNSt11_Deque_baseIPSt5dequeIN12_GLOBAL__N_112XCOFFSectionESaIS2_EESaIS5_EE16_M_destroy_nodesEPPS5_S9_.exit.loopexit.i.i.i, !llvm.loop !62

_ZNSt11_Deque_baseIPSt5dequeIN12_GLOBAL__N_112XCOFFSectionESaIS2_EESaIS5_EE16_M_destroy_nodesEPPS5_S9_.exit.loopexit.i.i.i: ; preds = %.lr.ph.i.i.i.i
  %.pre.i.i.i = load ptr, ptr %2, align 8
  br label %_ZNSt11_Deque_baseIPSt5dequeIN12_GLOBAL__N_112XCOFFSectionESaIS2_EESaIS5_EE16_M_destroy_nodesEPPS5_S9_.exit.i.i.i

_ZNSt11_Deque_baseIPSt5dequeIN12_GLOBAL__N_112XCOFFSectionESaIS2_EESaIS5_EE16_M_destroy_nodesEPPS5_S9_.exit.i.i.i: ; preds = %_ZNSt11_Deque_baseIPSt5dequeIN12_GLOBAL__N_112XCOFFSectionESaIS2_EESaIS5_EE16_M_destroy_nodesEPPS5_S9_.exit.loopexit.i.i.i, %4
  %14 = phi ptr [ %.pre.i.i.i, %_ZNSt11_Deque_baseIPSt5dequeIN12_GLOBAL__N_112XCOFFSectionESaIS2_EESaIS5_EE16_M_destroy_nodesEPPS5_S9_.exit.loopexit.i.i.i ], [ %3, %4 ]
  %15 = getelementptr inbounds i8, ptr %0, i64 72
  %16 = load i64, ptr %15, align 8
  %17 = shl i64 %16, 3
  tail call void @_ZdlPvm(ptr noundef %14, i64 noundef %17) #23
  br label %_ZN12_GLOBAL__N_117CsectSectionEntryD2Ev.exit

_ZN12_GLOBAL__N_117CsectSectionEntryD2Ev.exit:    ; preds = %1, %_ZNSt11_Deque_baseIPSt5dequeIN12_GLOBAL__N_112XCOFFSectionESaIS2_EESaIS5_EE16_M_destroy_nodesEPPS5_S9_.exit.i.i.i
  tail call void @_ZdlPvm(ptr noundef nonnull %0, i64 noundef 144) #23
  ret void
}